Certificate:
    Data:
        Version: 3 (0x2)
        Serial Number:
            8e:58:60:05:6c:69:a4:e2:25:86:84:f2:62:10:e6:9d
        Signature Algorithm: sha256WithRSAEncryption
        Issuer: CN=Test Root CA
        Validity
            Not Before: Sep 27 13:05:17 2021 GMT
            Not After : Sep 25 13:05:17 2031 GMT
        Subject: C=UK, ST=London, O=Contoso, OU=IT, CN=DD5A6509A81A07DA92ACA6A622D02B8E7A8BC04930376905/emailAddress=info@contoso.com
        Subject Public Key Info:
            Public Key Algorithm: rsaEncryption
                RSA Public-Key: (2048 bit)
                Modulus:
                    00:b9:7f:da:c0:47:e1:cc:bb:3d:28:d6:26:6d:2f:
                    e9:92:b9:19:c2:08:94:d6:65:3e:d3:84:ca:6c:4c:
                    9a:dc:42:06:4c:d2:ce:b8:44:f0:6a:c8:73:4e:81:
                    dd:b1:a6:38:a0:e0:6f:ee:27:8b:88:53:0a:bc:71:
                    a0:b4:6b:6c:f4:95:b1:33:4d:b6:69:67:4f:2f:41:
                    f1:85:c2:c5:dd:8c:cc:ef:4d:14:ed:5a:c4:95:92:
                    e1:b3:05:b5:a4:f9:1e:c4:3c:d9:f1:e6:3a:c4:03:
                    55:92:aa:fa:ca:09:71:54:be:08:e1:ad:31:0d:78:
                    22:20:ff:1b:aa:e6:f4:8a:99:99:af:a6:8b:5b:2c:
                    b8:7a:d1:ff:e5:93:dd:c9:b7:56:0d:67:bd:c1:55:
                    d1:c4:e1:ce:03:80:c7:38:2e:45:6e:c4:4c:b9:cf:
                    f5:82:cc:81:aa:09:20:c5:4a:05:ad:fe:37:f6:a0:
                    21:c5:df:0f:70:01:f3:30:c1:35:a5:7c:e6:cb:19:
                    d3:00:54:a1:8d:83:14:71:88:01:2d:f2:61:25:be:
                    73:65:85:d4:2e:4a:e1:5e:b1:1e:cf:61:d3:ed:40:
                    df:2c:76:09:53:84:20:10:1d:3f:63:bf:f4:b0:2a:
                    2e:95:3c:00:76:5d:12:2c:2a:ed:6e:7a:9d:91:bb:
                    88:cb
                Exponent: 65537 (0x10001)
        X509v3 extensions:
            X509v3 Authority Key Identifier: 
                keyid:9F:77:B2:C0:76:F7:DF:A0:82:F8:75:2F:74:D1:77:D6:D0:E1:A3:22

            X509v3 Basic Constraints: critical
                CA:FALSE
            X509v3 Extended Key Usage: 
                TLS Web Client Authentication
            X509v3 Key Usage: critical
                Digital Signature
            X509v3 Subject Key Identifier: 
                AA:00:AD:6C:EF:28:CC:52:18:64:30:A6:97:69:7B:40:5A:2A:F9:E1
    Signature Algorithm: sha256WithRSAEncryption
         56:6c:3c:67:69:a2:98:c5:5a:1a:7b:c5:d7:ab:89:c8:3c:30:
         86:4b:a7:fd:8c:bc:38:f7:b3:6e:83:76:7e:43:2d:c0:da:11:
         16:1c:52:bc:f2:de:23:39:53:54:ff:db:25:73:e0:8e:ac:db:
         71:5d:5c:dd:8d:fd:2e:cf:e9:4f:eb:14:51:80:10:ad:57:22:
         ca:8a:a6:ba:48:22:a2:0a:ed:a9:2a:e4:f2:cb:04:47:1a:cf:
         5f:da:e1:0a:a8:e9:e3:b1:6c:1f:ce:71:29:7a:5f:05:d7:7e:
         05:67:f9:d3:89:83:a4:6c:b3:d2:de:70:19:21:4c:e8:28:29:
         6c:35:fa:f6:8d:88:66:6b:3c:a3:dd:d6:06:98:2a:c5:d1:a5:
         1b:64:4b:10:ee:b2:63:52:bc:13:e6:a2:c6:61:c2:52:f3:b8:
         bf:cb:24:e1:8a:ca:d6:7c:1f:fa:98:74:fe:60:54:18:34:23:
         1a:dd:b2:b8:de:b0:68:bb:ad:7f:e2:45:03:3d:7b:b9:86:c4:
         9d:53:bf:c5:72:a5:ec:74:6d:14:68:c9:fe:a9:2c:a9:51:92:
         01:e3:ec:ed:08:bc:e0:3c:dd:99:e9:d4:ac:04:c4:64:3b:c6:
         40:65:c0:7b:24:1c:9d:83:1a:e9:e1:79:ff:ea:99:62:9e:73:
         36:a4:a6:dd
-----BEGIN CERTIFICATE-----
MIIDsTCCApmgAwIBAgIRAI5YYAVsaaTiJYaE8mIQ5p0wDQYJKoZIhvcNAQELBQAw
FzEVMBMGA1UEAwwMVGVzdCBSb290IENBMB4XDTIxMDkyNzEzMDUxN1oXDTMxMDky
NTEzMDUxN1owgZkxCzAJBgNVBAYTAlVLMQ8wDQYDVQQIDAZMb25kb24xEDAOBgNV
BAoMB0NvbnRvc28xCzAJBgNVBAsMAklUMTkwNwYDVQQDDDBERDVBNjUwOUE4MUEw
N0RBOTJBQ0E2QTYyMkQwMkI4RTdBOEJDMDQ5MzAzNzY5MDUxHzAdBgkqhkiG9w0B
CQEWEGluZm9AY29udG9zby5jb20wggEiMA0GCSqGSIb3DQEBAQUAA4IBDwAwggEK
AoIBAQC5f9rAR+HMuz0o1iZtL+mSuRnCCJTWZT7ThMpsTJrcQgZM0s64RPBqyHNO
gd2xpjig4G/uJ4uIUwq8caC0a2z0lbEzTbZpZ08vQfGFwsXdjMzvTRTtWsSVkuGz
BbWk+R7EPNnx5jrEA1WSqvrKCXFUvgjhrTENeCIg/xuq5vSKmZmvpotbLLh60f/l
k93Jt1YNZ73BVdHE4c4DgMc4LkVuxEy5z/WCzIGqCSDFSgWt/jf2oCHF3w9wAfMw
wTWlfObLGdMAVKGNgxRxiAEt8mElvnNlhdQuSuFesR7PYdPtQN8sdglThCAQHT9j
v/SwKi6VPAB2XRIsKu1uep2Ru4jLAgMBAAGjdTBzMB8GA1UdIwQYMBaAFJ93ssB2
99+ggvh1L3TRd9bQ4aMiMAwGA1UdEwEB/wQCMAAwEwYDVR0lBAwwCgYIKwYBBQUH
AwIwDgYDVR0PAQH/BAQDAgeAMB0GA1UdDgQWBBSqAK1s7yjMUhhkMKaXaXtAWir5
4TANBgkqhkiG9w0BAQsFAAOCAQEAVmw8Z2mimMVaGnvF16uJyDwwhkun/Yy8OPez
boN2fkMtwNoRFhxSvPLeIzlTVP/bJXPgjqzbcV1c3Y39Ls/pT+sUUYAQrVciyoqm
ukgiogrtqSrk8ssERxrPX9rhCqjp47FsH85xKXpfBdd+BWf504mDpGyz0t5wGSFM
6CgpbDX69o2IZms8o93WBpgqxdGlG2RLEO6yY1K8E+aixmHCUvO4v8sk4YrK1nwf
+ph0/mBUGDQjGt2yuN6waLutf+JFAz17uYbEnVO/xXKl7HRtFGjJ/qksqVGSAePs
7Qi84DzdmenUrATEZDvGQGXAeyQcnYMa6eF5/+qZYp5zNqSm3Q==
-----END CERTIFICATE-----
