Certificate:
    Data:
        Version: 3 (0x2)
        Serial Number:
            8e:58:60:05:6c:69:a4:e2:25:86:84:f2:62:10:e6:9c
        Signature Algorithm: sha256WithRSAEncryption
        Issuer: CN=Test Root CA
        Validity
            Not Before: Sep 27 12:56:54 2021 GMT
            Not After : Sep 25 12:56:54 2031 GMT
        Subject: C=UK, ST=London, O=Contoso, OU=IT, CN=F98DE9E55C929C3E2E90E4D690D911C750FAB2E0878D99E7/emailAddress=info@contoso.com
        Subject Public Key Info:
            Public Key Algorithm: rsaEncryption
                RSA Public-Key: (2048 bit)
                Modulus:
                    00:b9:7f:da:c0:47:e1:cc:bb:3d:28:d6:26:6d:2f:
                    e9:92:b9:19:c2:08:94:d6:65:3e:d3:84:ca:6c:4c:
                    9a:dc:42:06:4c:d2:ce:b8:44:f0:6a:c8:73:4e:81:
                    dd:b1:a6:38:a0:e0:6f:ee:27:8b:88:53:0a:bc:71:
                    a0:b4:6b:6c:f4:95:b1:33:4d:b6:69:67:4f:2f:41:
                    f1:85:c2:c5:dd:8c:cc:ef:4d:14:ed:5a:c4:95:92:
                    e1:b3:05:b5:a4:f9:1e:c4:3c:d9:f1:e6:3a:c4:03:
                    55:92:aa:fa:ca:09:71:54:be:08:e1:ad:31:0d:78:
                    22:20:ff:1b:aa:e6:f4:8a:99:99:af:a6:8b:5b:2c:
                    b8:7a:d1:ff:e5:93:dd:c9:b7:56:0d:67:bd:c1:55:
                    d1:c4:e1:ce:03:80:c7:38:2e:45:6e:c4:4c:b9:cf:
                    f5:82:cc:81:aa:09:20:c5:4a:05:ad:fe:37:f6:a0:
                    21:c5:df:0f:70:01:f3:30:c1:35:a5:7c:e6:cb:19:
                    d3:00:54:a1:8d:83:14:71:88:01:2d:f2:61:25:be:
                    73:65:85:d4:2e:4a:e1:5e:b1:1e:cf:61:d3:ed:40:
                    df:2c:76:09:53:84:20:10:1d:3f:63:bf:f4:b0:2a:
                    2e:95:3c:00:76:5d:12:2c:2a:ed:6e:7a:9d:91:bb:
                    88:cb
                Exponent: 65537 (0x10001)
        X509v3 extensions:
            X509v3 Authority Key Identifier: 
                keyid:9F:77:B2:C0:76:F7:DF:A0:82:F8:75:2F:74:D1:77:D6:D0:E1:A3:22

            X509v3 Basic Constraints: critical
                CA:FALSE
            X509v3 Extended Key Usage: 
                TLS Web Client Authentication
            X509v3 Key Usage: critical
                Digital Signature
            X509v3 Subject Key Identifier: 
                AA:00:AD:6C:EF:28:CC:52:18:64:30:A6:97:69:7B:40:5A:2A:F9:E1
    Signature Algorithm: sha256WithRSAEncryption
         04:5f:a9:ac:18:c8:49:cd:ea:9e:e4:1a:4a:ea:f8:d0:31:fc:
         3e:d0:77:06:c3:5c:2e:18:c9:9e:bb:4f:9a:e0:2f:6b:ae:d9:
         0d:dd:63:64:7f:29:95:05:7f:b7:91:90:06:e7:1e:b1:b2:6f:
         4c:ef:b5:6d:55:d2:08:11:c7:89:d9:76:f3:a9:19:39:bb:f1:
         6e:f0:38:84:58:c3:c5:ea:c7:37:c6:a3:01:52:a7:07:d2:6c:
         61:c0:bd:c4:96:8b:7e:57:7b:5d:f0:6e:24:57:10:c4:c3:28:
         a4:a4:d8:c4:5a:b4:19:60:51:93:3f:a5:0a:04:18:3f:f7:b8:
         02:2a:a7:3d:53:0c:f1:15:9b:d7:04:15:52:3b:ea:c8:5a:f5:
         50:96:d5:ab:5f:81:40:81:69:68:c8:68:f3:d4:9c:69:ce:b9:
         cd:8f:64:ae:c1:9e:50:76:d6:03:6d:0a:b6:bc:2b:52:f2:61:
         60:4d:26:94:9f:1f:bc:bb:80:ad:b6:0d:f1:cc:6c:ce:a3:f0:
         3a:ec:1f:b3:21:6e:db:ec:6d:87:5c:14:a8:71:c3:23:d7:23:
         05:06:84:83:e3:a8:2f:94:c1:e8:41:5d:04:a6:e2:67:65:d9:
         a0:96:2b:e9:d5:6d:a2:b4:b4:15:14:88:91:3a:a8:e2:15:11:
         03:0c:69:90
-----BEGIN CERTIFICATE-----
MIIDsTCCApmgAwIBAgIRAI5YYAVsaaTiJYaE8mIQ5pwwDQYJKoZIhvcNAQELBQAw
FzEVMBMGA1UEAwwMVGVzdCBSb290IENBMB4XDTIxMDkyNzEyNTY1NFoXDTMxMDky
NTEyNTY1NFowgZkxCzAJBgNVBAYTAlVLMQ8wDQYDVQQIDAZMb25kb24xEDAOBgNV
BAoMB0NvbnRvc28xCzAJBgNVBAsMAklUMTkwNwYDVQQDDDBGOThERTlFNTVDOTI5
QzNFMkU5MEU0RDY5MEQ5MTFDNzUwRkFCMkUwODc4RDk5RTcxHzAdBgkqhkiG9w0B
CQEWEGluZm9AY29udG9zby5jb20wggEiMA0GCSqGSIb3DQEBAQUAA4IBDwAwggEK
AoIBAQC5f9rAR+HMuz0o1iZtL+mSuRnCCJTWZT7ThMpsTJrcQgZM0s64RPBqyHNO
gd2xpjig4G/uJ4uIUwq8caC0a2z0lbEzTbZpZ08vQfGFwsXdjMzvTRTtWsSVkuGz
BbWk+R7EPNnx5jrEA1WSqvrKCXFUvgjhrTENeCIg/xuq5vSKmZmvpotbLLh60f/l
k93Jt1YNZ73BVdHE4c4DgMc4LkVuxEy5z/WCzIGqCSDFSgWt/jf2oCHF3w9wAfMw
wTWlfObLGdMAVKGNgxRxiAEt8mElvnNlhdQuSuFesR7PYdPtQN8sdglThCAQHT9j
v/SwKi6VPAB2XRIsKu1uep2Ru4jLAgMBAAGjdTBzMB8GA1UdIwQYMBaAFJ93ssB2
99+ggvh1L3TRd9bQ4aMiMAwGA1UdEwEB/wQCMAAwEwYDVR0lBAwwCgYIKwYBBQUH
AwIwDgYDVR0PAQH/BAQDAgeAMB0GA1UdDgQWBBSqAK1s7yjMUhhkMKaXaXtAWir5
4TANBgkqhkiG9w0BAQsFAAOCAQEABF+prBjISc3qnuQaSur40DH8PtB3BsNcLhjJ
nrtPmuAva67ZDd1jZH8plQV/t5GQBucesbJvTO+1bVXSCBHHidl286kZObvxbvA4
hFjDxerHN8ajAVKnB9JsYcC9xJaLfld7XfBuJFcQxMMopKTYxFq0GWBRkz+lCgQY
P/e4AiqnPVMM8RWb1wQVUjvqyFr1UJbVq1+BQIFpaMho89Scac65zY9krsGeUHbW
A20KtrwrUvJhYE0mlJ8fvLuArbYN8cxszqPwOuwfsyFu2+xth1wUqHHDI9cjBQaE
g+OoL5TB6EFdBKbiZ2XZoJYr6dVtorS0FRSIkTqo4hURAwxpkA==
-----END CERTIFICATE-----
