Certificate:
    Data:
        Version: 3 (0x2)
        Serial Number:
            8e:58:60:05:6c:69:a4:e2:25:86:84:f2:62:10:e6:9b
        Signature Algorithm: sha256WithRSAEncryption
        Issuer: CN=Test Root CA
        Validity
            Not Before: Sep 27 12:49:08 2021 GMT
            Not After : Sep 25 12:49:08 2031 GMT
        Subject: CN=Test Root CA
        Subject Public Key Info:
            Public Key Algorithm: rsaEncryption
                RSA Public-Key: (2048 bit)
                Modulus:
                    00:b6:03:a4:0c:61:e8:9f:8e:f2:f0:8c:df:c9:e3:
                    3a:c7:13:23:3b:86:cf:ce:6a:95:e3:5d:42:cc:0c:
                    f4:d0:6e:de:13:54:eb:b5:e4:e5:ea:30:f6:11:46:
                    b6:c7:74:8c:63:a7:68:ed:a3:fe:14:1a:8f:5c:f5:
                    33:c1:3f:b0:12:f1:3a:ae:a8:d1:64:2b:d3:c1:f0:
                    5f:f0:7d:bb:67:00:76:4e:cd:80:21:8d:ae:b0:40:
                    7a:7b:b5:28:3a:a0:ea:42:f9:9e:0f:b9:49:8c:af:
                    a5:1e:57:e9:67:24:2e:e1:19:3d:91:0b:e8:0c:a2:
                    18:f1:86:79:91:7e:05:eb:62:a7:59:9b:c9:b7:8f:
                    d0:b9:49:b2:3c:ea:81:d6:f0:60:5e:4e:58:1b:c9:
                    f5:d3:fe:11:95:02:48:98:cf:c7:0e:48:84:a6:d8:
                    a0:d9:0a:ba:c7:e8:51:e6:78:6b:20:36:1e:12:de:
                    a0:29:a7:90:0a:97:b8:93:9f:cb:1b:50:b3:41:bc:
                    fe:16:e6:f8:75:b4:6e:8c:e2:c5:4d:73:0d:af:94:
                    d3:9e:14:48:13:f9:10:15:39:db:0f:d6:2c:69:2e:
                    dc:1d:01:be:83:5b:f1:22:11:12:ff:3a:17:db:b0:
                    62:bd:b6:04:0e:d1:0a:57:93:48:dc:56:68:3d:ed:
                    1b:4f
                Exponent: 65537 (0x10001)
        X509v3 extensions:
            X509v3 Basic Constraints: critical
                CA:TRUE
            X509v3 Key Usage: critical
                Certificate Sign, CRL Sign
            X509v3 Subject Key Identifier: 
                9F:77:B2:C0:76:F7:DF:A0:82:F8:75:2F:74:D1:77:D6:D0:E1:A3:22
    Signature Algorithm: sha256WithRSAEncryption
         27:51:1d:83:ce:0b:d8:28:ae:36:15:50:00:48:d3:0e:51:7c:
         c4:aa:0f:9d:c7:6e:59:68:b1:3f:d2:e0:de:e6:6d:12:a6:1d:
         d4:29:bb:c7:7f:aa:b4:5f:06:7f:64:32:29:b4:e4:00:a3:a0:
         94:a6:ef:c2:ae:92:3f:e4:3b:63:42:62:cf:97:e3:0c:84:61:
         78:55:78:69:f2:f0:e7:e6:9e:5e:fb:4a:be:dd:e7:22:e1:e2:
         22:a1:72:a0:5b:61:66:4a:1e:56:1d:db:3b:16:e9:45:1e:93:
         bb:8b:24:24:14:32:39:ae:ad:ef:bd:81:8b:fc:dd:87:4f:23:
         cb:2e:c3:44:c9:3b:8d:00:f5:53:f5:7a:61:bc:73:85:b7:da:
         17:17:00:41:ef:97:ca:51:bf:c0:4d:72:db:6d:d1:cb:72:84:
         2d:2a:aa:d0:6c:17:97:09:ee:c2:d6:15:ff:8e:01:24:b4:47:
         b3:13:77:a0:6e:37:73:40:f1:74:cc:22:0c:af:3c:61:23:25:
         de:59:14:7b:77:82:79:b6:8e:d9:80:f2:33:88:12:4d:34:01:
         80:fb:8b:8f:f6:c6:96:07:dc:26:7b:b4:ea:47:a5:6a:aa:53:
         ea:40:b1:84:7c:a6:ce:e6:28:35:2f:02:e4:87:ef:23:14:aa:
         be:eb:70:cb
-----BEGIN CERTIFICATE-----
MIIC+zCCAeOgAwIBAgIRAI5YYAVsaaTiJYaE8mIQ5pswDQYJKoZIhvcNAQELBQAw
FzEVMBMGA1UEAwwMVGVzdCBSb290IENBMB4XDTIxMDkyNzEyNDkwOFoXDTMxMDky
NTEyNDkwOFowFzEVMBMGA1UEAwwMVGVzdCBSb290IENBMIIBIjANBgkqhkiG9w0B
AQEFAAOCAQ8AMIIBCgKCAQEAtgOkDGHon47y8IzfyeM6xxMjO4bPzmqV411CzAz0
0G7eE1TrteTl6jD2EUa2x3SMY6do7aP+FBqPXPUzwT+wEvE6rqjRZCvTwfBf8H27
ZwB2Ts2AIY2usEB6e7UoOqDqQvmeD7lJjK+lHlfpZyQu4Rk9kQvoDKIY8YZ5kX4F
62KnWZvJt4/QuUmyPOqB1vBgXk5YG8n10/4RlQJImM/HDkiEptig2Qq6x+hR5nhr
IDYeEt6gKaeQCpe4k5/LG1CzQbz+Fub4dbRujOLFTXMNr5TTnhRIE/kQFTnbD9Ys
aS7cHQG+g1vxIhES/zoX27BivbYEDtEKV5NI3FZoPe0bTwIDAQABo0IwQDAPBgNV
HRMBAf8EBTADAQH/MA4GA1UdDwEB/wQEAwIBBjAdBgNVHQ4EFgQUn3eywHb336CC
+HUvdNF31tDhoyIwDQYJKoZIhvcNAQELBQADggEBACdRHYPOC9gorjYVUABI0w5R
fMSqD53HbllosT/S4N7mbRKmHdQpu8d/qrRfBn9kMim05ACjoJSm78Kukj/kO2NC
Ys+X4wyEYXhVeGny8Ofmnl77Sr7d5yLh4iKhcqBbYWZKHlYd2zsW6UUek7uLJCQU
Mjmure+9gYv83YdPI8suw0TJO40A9VP1emG8c4W32hcXAEHvl8pRv8BNcttt0cty
hC0qqtBsF5cJ7sLWFf+OASS0R7MTd6BuN3NA8XTMIgyvPGEjJd5ZFHt3gnm2jtmA
8jOIEk00AYD7i4/2xpYH3CZ7tOpHpWqqU+pAsYR8ps7mKDUvAuSH7yMUqr7rcMs=
-----END CERTIFICATE-----
