Certificate:
    Data:
        Version: 3 (0x2)
        Serial Number:
            8e:58:60:05:6c:69:a4:e2:25:86:84:f2:62:10:e6:9f
        Signature Algorithm: sha256WithRSAEncryption
        Issuer: CN=Test Root CA
        Validity
            Not Before: Sep 29 08:54:19 2021 GMT
            Not After : Sep 27 08:54:19 2031 GMT
        Subject: CN=Test Root CA
        Subject Public Key Info:
            Public Key Algorithm: rsaEncryption
                RSA Public-Key: (2048 bit)
                Modulus:
                    00:b6:03:a4:0c:61:e8:9f:8e:f2:f0:8c:df:c9:e3:
                    3a:c7:13:23:3b:86:cf:ce:6a:95:e3:5d:42:cc:0c:
                    f4:d0:6e:de:13:54:eb:b5:e4:e5:ea:30:f6:11:46:
                    b6:c7:74:8c:63:a7:68:ed:a3:fe:14:1a:8f:5c:f5:
                    33:c1:3f:b0:12:f1:3a:ae:a8:d1:64:2b:d3:c1:f0:
                    5f:f0:7d:bb:67:00:76:4e:cd:80:21:8d:ae:b0:40:
                    7a:7b:b5:28:3a:a0:ea:42:f9:9e:0f:b9:49:8c:af:
                    a5:1e:57:e9:67:24:2e:e1:19:3d:91:0b:e8:0c:a2:
                    18:f1:86:79:91:7e:05:eb:62:a7:59:9b:c9:b7:8f:
                    d0:b9:49:b2:3c:ea:81:d6:f0:60:5e:4e:58:1b:c9:
                    f5:d3:fe:11:95:02:48:98:cf:c7:0e:48:84:a6:d8:
                    a0:d9:0a:ba:c7:e8:51:e6:78:6b:20:36:1e:12:de:
                    a0:29:a7:90:0a:97:b8:93:9f:cb:1b:50:b3:41:bc:
                    fe:16:e6:f8:75:b4:6e:8c:e2:c5:4d:73:0d:af:94:
                    d3:9e:14:48:13:f9:10:15:39:db:0f:d6:2c:69:2e:
                    dc:1d:01:be:83:5b:f1:22:11:12:ff:3a:17:db:b0:
                    62:bd:b6:04:0e:d1:0a:57:93:48:dc:56:68:3d:ed:
                    1b:4f
                Exponent: 65537 (0x10001)
        X509v3 extensions:
            X509v3 Basic Constraints: critical
                CA:TRUE
            X509v3 Key Usage: critical
                Certificate Sign, CRL Sign
            X509v3 Subject Key Identifier: 
                9F:77:B2:C0:76:F7:DF:A0:82:F8:75:2F:74:D1:77:D6:D0:E1:A3:22
    Signature Algorithm: sha256WithRSAEncryption
         6f:aa:64:17:44:5b:5c:7f:3d:0b:ce:f8:5f:b9:c2:0e:72:83:
         03:c3:bc:a4:8b:27:e5:24:5d:9f:cc:32:3d:32:c0:c6:01:d9:
         8c:10:22:23:c6:bb:87:b4:4a:09:8b:6e:af:89:22:c8:73:f5:
         35:5b:c8:e6:06:ec:7e:63:27:7f:bd:58:ea:35:a4:a6:1e:ed:
         9e:3d:fd:dd:6f:8d:cc:56:7e:ba:71:e3:46:32:2a:39:4d:1b:
         bd:3d:c5:25:90:4b:0e:3e:b6:4c:c8:10:d5:7d:09:e4:5b:58:
         9b:ab:c5:c4:5d:0c:c8:4f:6d:22:6f:9d:01:5d:07:b1:0c:98:
         0a:e8:9e:1c:25:2b:60:a7:ce:10:28:05:ca:8d:87:5e:d9:fd:
         f5:ed:fb:4e:1d:e9:13:22:ce:40:45:76:89:86:74:69:41:80:
         ae:80:e7:9c:d9:92:0c:52:70:01:e1:6e:8a:a8:60:89:92:9c:
         21:29:98:16:9e:d5:2d:77:1d:5a:99:b0:40:a8:f5:81:17:3b:
         3b:c8:cf:15:9a:40:7a:59:ec:f1:47:39:05:6b:0e:68:69:fc:
         e0:99:50:96:db:c9:6e:b1:3f:fd:4f:12:be:eb:c6:f1:22:67:
         44:5c:93:43:5f:bf:a8:34:34:cc:b0:e9:5d:dc:cb:b9:4f:2f:
         b3:85:d4:fd
-----BEGIN CERTIFICATE-----
MIIC+zCCAeOgAwIBAgIRAI5YYAVsaaTiJYaE8mIQ5p8wDQYJKoZIhvcNAQELBQAw
FzEVMBMGA1UEAwwMVGVzdCBSb290IENBMB4XDTIxMDkyOTA4NTQxOVoXDTMxMDky
NzA4NTQxOVowFzEVMBMGA1UEAwwMVGVzdCBSb290IENBMIIBIjANBgkqhkiG9w0B
AQEFAAOCAQ8AMIIBCgKCAQEAtgOkDGHon47y8IzfyeM6xxMjO4bPzmqV411CzAz0
0G7eE1TrteTl6jD2EUa2x3SMY6do7aP+FBqPXPUzwT+wEvE6rqjRZCvTwfBf8H27
ZwB2Ts2AIY2usEB6e7UoOqDqQvmeD7lJjK+lHlfpZyQu4Rk9kQvoDKIY8YZ5kX4F
62KnWZvJt4/QuUmyPOqB1vBgXk5YG8n10/4RlQJImM/HDkiEptig2Qq6x+hR5nhr
IDYeEt6gKaeQCpe4k5/LG1CzQbz+Fub4dbRujOLFTXMNr5TTnhRIE/kQFTnbD9Ys
aS7cHQG+g1vxIhES/zoX27BivbYEDtEKV5NI3FZoPe0bTwIDAQABo0IwQDAPBgNV
HRMBAf8EBTADAQH/MA4GA1UdDwEB/wQEAwIBBjAdBgNVHQ4EFgQUn3eywHb336CC
+HUvdNF31tDhoyIwDQYJKoZIhvcNAQELBQADggEBAG+qZBdEW1x/PQvO+F+5wg5y
gwPDvKSLJ+UkXZ/MMj0ywMYB2YwQIiPGu4e0SgmLbq+JIshz9TVbyOYG7H5jJ3+9
WOo1pKYe7Z49/d1vjcxWfrpx40YyKjlNG709xSWQSw4+tkzIENV9CeRbWJurxcRd
DMhPbSJvnQFdB7EMmAronhwlK2CnzhAoBcqNh17Z/fXt+04d6RMizkBFdomGdGlB
gK6A55zZkgxScAHhboqoYImSnCEpmBae1S13HVqZsECo9YEXOzvIzxWaQHpZ7PFH
OQVrDmhp/OCZUJbbyW6xP/1PEr7rxvEiZ0Rck0Nfv6g0NMyw6V3cy7lPL7OF1P0=
-----END CERTIFICATE-----
